target datalayout = "e-m:e-p270:32:32-p271:32:32-p272:64:64-i64:64-i128:128-f80:128-n8:16:32:64-S128"
target triple = "x86_64-pc-linux-gnu"

%struct.CVodeMemRec = type { ptr, double, ptr, ptr, i32, i32, double, double, ptr, i32, i32, ptr, ptr, i32, i32, ptr, i32, i32, double, double, ptr, i32, i32, i32, i32, ptr, ptr, ptr, i32, i32, ptr, ptr, ptr, i32, double, i32, i32, double, ptr, ptr, ptr, i32, ptr, ptr, i32, i32, i32, double, ptr, ptr, ptr, [13 x ptr], ptr, ptr, ptr, ptr, ptr, ptr, ptr, ptr, ptr, [13 x ptr], ptr, ptr, ptr, ptr, [13 x ptr], ptr, ptr, ptr, ptr, ptr, i32, [13 x ptr], ptr, ptr, ptr, ptr, ptr, i32, i32, double, i32, i32, i32, i32, i32, double, double, double, double, double, double, double, double, [14 x double], [6 x double], [13 x double], double, double, double, double, double, double, double, double, i32, double, double, i32, double, double, ptr, i32, i64, i32, i32, i32, double, double, double, double, double, double, double, double, double, double, double, double, i64, i32, i64, i64, i64, i64, i64, i64, i64, i64, i64, ptr, i64, i64, ptr, i64, i64, ptr, i64, i64, i64, i64, i64, i64, i32, double, double, double, i64, i64, i64, i64, i64, i64, ptr, i32, ptr, i32, ptr, i32, ptr, i32, i32, i64, i32, ptr, i32, ptr, ptr, ptr, ptr, ptr, ptr, i32, i32, ptr, ptr, ptr, ptr, ptr, i64, double, i32, i32, i64, double, double, double, i32, i32, double, i32, i32, i32, i32, i32, i32, i32, i32, i32, i32, i32, i32, i32, i32, i32, i32, ptr, i64, i32, [6 x [4 x double]], i32, i64, ptr, i32, ptr, ptr, double, double, double, ptr, ptr, ptr, double, double, i32, i32, i64, ptr, i32, ptr, i32, i32, [13 x double], ptr, ptr, ptr, i32, ptr, i32 }

@.str = private unnamed_addr constant [115 x i8] c"generated/home/dtcxzyw/WorkSpace/Projects/compilers/llvm-opt-benchmark/bench/sundials/sundials/src/cvodes/cvodes.c\00", align 1
@.str.4 = private unnamed_addr constant [26 x i8] c"cvode_mem = NULL illegal.\00", align 1
@.str.23 = private unnamed_addr constant [44 x i8] c"Forward sensitivity analysis not activated.\00", align 1
@.str.29 = private unnamed_addr constant [69 x i8] c"Forward sensitivity analysis for quadrature variables not activated.\00", align 1
@__func__.CVodeQuadSensSStolerances = private unnamed_addr constant [26 x i8] c"CVodeQuadSensSStolerances\00", align 1
@.str.30 = private unnamed_addr constant [22 x i8] c"reltolQS < 0 illegal.\00", align 1
@.str.31 = private unnamed_addr constant [25 x i8] c"abstolQS = NULL illegal.\00", align 1
@.str.32 = private unnamed_addr constant [46 x i8] c"abstolQS has negative component(s) (illegal).\00", align 1

; Function Attrs: nounwind uwtable
define i32 @CVodeQuadSensSStolerances(ptr noundef %0, double noundef %1, ptr noundef %2) #0 {
  %4 = alloca i32, align 4
  %5 = alloca ptr, align 8
  %6 = alloca double, align 8
  %7 = alloca ptr, align 8
  %8 = alloca ptr, align 8
  %9 = alloca i32, align 4
  %10 = alloca i32, align 4
  store ptr %0, ptr %5, align 8, !tbaa !153
  store double %1, ptr %6, align 8, !tbaa !150
  store ptr %2, ptr %7, align 8, !tbaa !246
  call void @llvm.lifetime.start.p0(i64 8, ptr %8) #10
  call void @llvm.lifetime.start.p0(i64 4, ptr %9) #10
  %11 = load ptr, ptr %5, align 8, !tbaa !153
  %12 = icmp eq ptr %11, null
  br i1 %12, label %13, label %14

13:                                               ; preds = %3
  call void (ptr, i32, i32, ptr, ptr, ptr, ...) @cvProcessError(ptr noundef null, i32 noundef -21, i32 noundef 2428, ptr noundef @__func__.CVodeQuadSensSStolerances, ptr noundef @.str, ptr noundef @.str.4)
  store i32 -21, ptr %4, align 4
  store i32 1, ptr %10, align 4
  br label %134

14:                                               ; preds = %3
  %15 = load ptr, ptr %5, align 8, !tbaa !153
  store ptr %15, ptr %8, align 8, !tbaa !10
  %16 = load ptr, ptr %8, align 8, !tbaa !10
  %17 = getelementptr inbounds nuw %struct.CVodeMemRec, ptr %16, i32 0, i32 213
  %18 = load i32, ptr %17, align 8, !tbaa !119
  %19 = icmp eq i32 %18, 0
  br i1 %19, label %20, label %22

20:                                               ; preds = %14
  %21 = load ptr, ptr %8, align 8, !tbaa !10
  call void (ptr, i32, i32, ptr, ptr, ptr, ...) @cvProcessError(ptr noundef %21, i32 noundef -40, i32 noundef 2437, ptr noundef @__func__.CVodeQuadSensSStolerances, ptr noundef @.str, ptr noundef @.str.23)
  store i32 -40, ptr %4, align 4
  store i32 1, ptr %10, align 4
  br label %134

22:                                               ; preds = %14
  %23 = load ptr, ptr %8, align 8, !tbaa !10
  %24 = getelementptr inbounds nuw %struct.CVodeMemRec, ptr %23, i32 0, i32 216
  %25 = load i32, ptr %24, align 4, !tbaa !122
  %26 = icmp eq i32 %25, 0
  br i1 %26, label %27, label %29

27:                                               ; preds = %22
  %28 = load ptr, ptr %8, align 8, !tbaa !10
  call void (ptr, i32, i32, ptr, ptr, ptr, ...) @cvProcessError(ptr noundef %28, i32 noundef -50, i32 noundef 2446, ptr noundef @__func__.CVodeQuadSensSStolerances, ptr noundef @.str, ptr noundef @.str.29)
  store i32 -30, ptr %4, align 4
  store i32 1, ptr %10, align 4
  br label %134

29:                                               ; preds = %22
  %30 = load double, ptr %6, align 8, !tbaa !150
  %31 = fcmp olt double %30, 0.000000e+00
  br i1 %31, label %32, label %34

32:                                               ; preds = %29
  %33 = load ptr, ptr %8, align 8, !tbaa !10
  call void (ptr, i32, i32, ptr, ptr, ptr, ...) @cvProcessError(ptr noundef %33, i32 noundef -22, i32 noundef 2455, ptr noundef @__func__.CVodeQuadSensSStolerances, ptr noundef @.str, ptr noundef @.str.30)
  store i32 -22, ptr %4, align 4
  store i32 1, ptr %10, align 4
  br label %134

34:                                               ; preds = %29
  %35 = load ptr, ptr %7, align 8, !tbaa !246
  %36 = icmp eq ptr %35, null
  br i1 %36, label %37, label %39

37:                                               ; preds = %34
  %38 = load ptr, ptr %8, align 8, !tbaa !10
  call void (ptr, i32, i32, ptr, ptr, ptr, ...) @cvProcessError(ptr noundef %38, i32 noundef -22, i32 noundef 2462, ptr noundef @__func__.CVodeQuadSensSStolerances, ptr noundef @.str, ptr noundef @.str.31)
  store i32 -22, ptr %4, align 4
  store i32 1, ptr %10, align 4
  br label %134

39:                                               ; preds = %34
  store i32 0, ptr %9, align 4, !tbaa !3
  br label %40

40:                                               ; preds = %56, %39
  %41 = load i32, ptr %9, align 4, !tbaa !3
  %42 = load ptr, ptr %8, align 8, !tbaa !10
  %43 = getelementptr inbounds nuw %struct.CVodeMemRec, ptr %42, i32 0, i32 23
  %44 = load i32, ptr %43, align 8, !tbaa !230
  %45 = icmp slt i32 %41, %44
  br i1 %45, label %46, label %59

46:                                               ; preds = %40
  %47 = load ptr, ptr %7, align 8, !tbaa !246
  %48 = load i32, ptr %9, align 4, !tbaa !3
  %49 = sext i32 %48 to i64
  %50 = getelementptr inbounds double, ptr %47, i64 %49
  %51 = load double, ptr %50, align 8, !tbaa !150
  %52 = fcmp olt double %51, 0.000000e+00
  br i1 %52, label %53, label %55

53:                                               ; preds = %46
  %54 = load ptr, ptr %8, align 8, !tbaa !10
  call void (ptr, i32, i32, ptr, ptr, ptr, ...) @cvProcessError(ptr noundef %54, i32 noundef -22, i32 noundef 2471, ptr noundef @__func__.CVodeQuadSensSStolerances, ptr noundef @.str, ptr noundef @.str.32)
  store i32 -22, ptr %4, align 4
  store i32 1, ptr %10, align 4
  br label %134

55:                                               ; preds = %46
  br label %56

56:                                               ; preds = %55
  %57 = load i32, ptr %9, align 4, !tbaa !3
  %58 = add nsw i32 %57, 1
  store i32 %58, ptr %9, align 4, !tbaa !3
  br label %40

59:                                               ; preds = %40
  %60 = load ptr, ptr %8, align 8, !tbaa !10
  %61 = getelementptr inbounds nuw %struct.CVodeMemRec, ptr %60, i32 0, i32 46
  store i32 1, ptr %61, align 8, !tbaa !103
  %62 = load double, ptr %6, align 8, !tbaa !150
  %63 = load ptr, ptr %8, align 8, !tbaa !10
  %64 = getelementptr inbounds nuw %struct.CVodeMemRec, ptr %63, i32 0, i32 47
  store double %62, ptr %64, align 8, !tbaa !257
  %65 = load ptr, ptr %8, align 8, !tbaa !10
  %66 = getelementptr inbounds nuw %struct.CVodeMemRec, ptr %65, i32 0, i32 215
  %67 = load i32, ptr %66, align 8, !tbaa !121
  %68 = icmp ne i32 %67, 0
  br i1 %68, label %98, label %69

69:                                               ; preds = %59
  %70 = load ptr, ptr %8, align 8, !tbaa !10
  %71 = getelementptr inbounds nuw %struct.CVodeMemRec, ptr %70, i32 0, i32 48
  store ptr null, ptr %71, align 8, !tbaa !258
  %72 = load ptr, ptr %8, align 8, !tbaa !10
  %73 = getelementptr inbounds nuw %struct.CVodeMemRec, ptr %72, i32 0, i32 23
  %74 = load i32, ptr %73, align 8, !tbaa !230
  %75 = sext i32 %74 to i64
  %76 = mul i64 %75, 8
  %77 = call noalias ptr @malloc(i64 noundef %76) #11
  %78 = load ptr, ptr %8, align 8, !tbaa !10
  %79 = getelementptr inbounds nuw %struct.CVodeMemRec, ptr %78, i32 0, i32 48
  store ptr %77, ptr %79, align 8, !tbaa !258
  %80 = load ptr, ptr %8, align 8, !tbaa !10
  %81 = getelementptr inbounds nuw %struct.CVodeMemRec, ptr %80, i32 0, i32 23
  %82 = load i32, ptr %81, align 8, !tbaa !230
  %83 = sext i32 %82 to i64
  %84 = mul i64 %83, 4
  %85 = call noalias ptr @malloc(i64 noundef %84) #11
  %86 = load ptr, ptr %8, align 8, !tbaa !10
  %87 = getelementptr inbounds nuw %struct.CVodeMemRec, ptr %86, i32 0, i32 50
  store ptr %85, ptr %87, align 8, !tbaa !104
  %88 = load ptr, ptr %8, align 8, !tbaa !10
  %89 = getelementptr inbounds nuw %struct.CVodeMemRec, ptr %88, i32 0, i32 23
  %90 = load i32, ptr %89, align 8, !tbaa !230
  %91 = sext i32 %90 to i64
  %92 = load ptr, ptr %8, align 8, !tbaa !10
  %93 = getelementptr inbounds nuw %struct.CVodeMemRec, ptr %92, i32 0, i32 162
  %94 = load i64, ptr %93, align 8, !tbaa !110
  %95 = add nsw i64 %94, %91
  store i64 %95, ptr %93, align 8, !tbaa !110
  %96 = load ptr, ptr %8, align 8, !tbaa !10
  %97 = getelementptr inbounds nuw %struct.CVodeMemRec, ptr %96, i32 0, i32 215
  store i32 1, ptr %97, align 8, !tbaa !121
  br label %98

98:                                               ; preds = %69, %59
  store i32 0, ptr %9, align 4, !tbaa !3
  br label %99

99:                                               ; preds = %130, %98
  %100 = load i32, ptr %9, align 4, !tbaa !3
  %101 = load ptr, ptr %8, align 8, !tbaa !10
  %102 = getelementptr inbounds nuw %struct.CVodeMemRec, ptr %101, i32 0, i32 23
  %103 = load i32, ptr %102, align 8, !tbaa !230
  %104 = icmp slt i32 %100, %103
  br i1 %104, label %105, label %133

105:                                              ; preds = %99
  %106 = load ptr, ptr %7, align 8, !tbaa !246
  %107 = load i32, ptr %9, align 4, !tbaa !3
  %108 = sext i32 %107 to i64
  %109 = getelementptr inbounds double, ptr %106, i64 %108
  %110 = load double, ptr %109, align 8, !tbaa !150
  %111 = load ptr, ptr %8, align 8, !tbaa !10
  %112 = getelementptr inbounds nuw %struct.CVodeMemRec, ptr %111, i32 0, i32 48
  %113 = load ptr, ptr %112, align 8, !tbaa !258
  %114 = load i32, ptr %9, align 4, !tbaa !3
  %115 = sext i32 %114 to i64
  %116 = getelementptr inbounds double, ptr %113, i64 %115
  store double %110, ptr %116, align 8, !tbaa !150
  %117 = load ptr, ptr %7, align 8, !tbaa !246
  %118 = load i32, ptr %9, align 4, !tbaa !3
  %119 = sext i32 %118 to i64
  %120 = getelementptr inbounds double, ptr %117, i64 %119
  %121 = load double, ptr %120, align 8, !tbaa !150
  %122 = fcmp oeq double %121, 0.000000e+00
  %123 = zext i1 %122 to i32
  %124 = load ptr, ptr %8, align 8, !tbaa !10
  %125 = getelementptr inbounds nuw %struct.CVodeMemRec, ptr %124, i32 0, i32 50
  %126 = load ptr, ptr %125, align 8, !tbaa !104
  %127 = load i32, ptr %9, align 4, !tbaa !3
  %128 = sext i32 %127 to i64
  %129 = getelementptr inbounds i32, ptr %126, i64 %128
  store i32 %123, ptr %129, align 4, !tbaa !3
  br label %130

130:                                              ; preds = %105
  %131 = load i32, ptr %9, align 4, !tbaa !3
  %132 = add nsw i32 %131, 1
  store i32 %132, ptr %9, align 4, !tbaa !3
  br label %99

133:                                              ; preds = %99
  store i32 0, ptr %4, align 4
  store i32 1, ptr %10, align 4
  br label %134

134:                                              ; preds = %133, %53, %37, %32, %27, %20, %13
  call void @llvm.lifetime.end.p0(i64 4, ptr %9) #10
  call void @llvm.lifetime.end.p0(i64 8, ptr %8) #10
  %135 = load i32, ptr %4, align 4
  ret i32 %135
}