; Function Attrs: nounwind uwtable
define range(i32 -40, 1) i32 @CVodeQuadSensSStolerances(ptr noundef captures(address_is_null) %0, double noundef %1, ptr noundef readonly captures(address_is_null) %2) local_unnamed_addr #0 {
  %4 = icmp eq ptr %0, null
  br i1 %4, label %5, label %6

5:                                                ; preds = %3
  tail call void (ptr, i32, i32, ptr, ptr, ptr, ...) @cvProcessError(ptr noundef null, i32 noundef -21, i32 noundef 2428, ptr noundef nonnull @__func__.CVodeQuadSensSStolerances, ptr noundef nonnull @.str, ptr noundef nonnull @.str.4)
  br label %.loopexit

6:                                                ; preds = %3
  %7 = getelementptr inbounds nuw i8, ptr %0, i64 2144
  %8 = load i32, ptr %7, align 8, !tbaa !155
  %9 = icmp eq i32 %8, 0
  br i1 %9, label %10, label %11

10:                                               ; preds = %6
  tail call void (ptr, i32, i32, ptr, ptr, ptr, ...) @cvProcessError(ptr noundef nonnull %0, i32 noundef -40, i32 noundef 2437, ptr noundef nonnull @__func__.CVodeQuadSensSStolerances, ptr noundef nonnull @.str, ptr noundef nonnull @.str.23)
  br label %.loopexit

11:                                               ; preds = %6
  %12 = getelementptr inbounds nuw i8, ptr %0, i64 2156
  %13 = load i32, ptr %12, align 4, !tbaa !199
  %14 = icmp eq i32 %13, 0
  br i1 %14, label %15, label %16

15:                                               ; preds = %11
  tail call void (ptr, i32, i32, ptr, ptr, ptr, ...) @cvProcessError(ptr noundef nonnull %0, i32 noundef -50, i32 noundef 2446, ptr noundef nonnull @__func__.CVodeQuadSensSStolerances, ptr noundef nonnull @.str, ptr noundef nonnull @.str.29)
  br label %.loopexit

16:                                               ; preds = %11
  %17 = fcmp olt double %1, 0.000000e+00
  br i1 %17, label %18, label %19

18:                                               ; preds = %16
  tail call void (ptr, i32, i32, ptr, ptr, ptr, ...) @cvProcessError(ptr noundef nonnull %0, i32 noundef -22, i32 noundef 2455, ptr noundef nonnull @__func__.CVodeQuadSensSStolerances, ptr noundef nonnull @.str, ptr noundef nonnull @.str.30)
  br label %.loopexit

19:                                               ; preds = %16
  %20 = icmp eq ptr %2, null
  br i1 %20, label %24, label %.preheader

.preheader:                                       ; preds = %19
  %21 = getelementptr inbounds nuw i8, ptr %0, i64 144
  %22 = load i32, ptr %21, align 8, !tbaa !156
  %23 = icmp sgt i32 %22, 0
  br i1 %23, label %.lr.ph.preheader, label %._crit_edge

.lr.ph.preheader:                                 ; preds = %.preheader
  %wide.trip.count = zext nneg i32 %22 to i64
  br label %.lr.ph

24:                                               ; preds = %19
  tail call void (ptr, i32, i32, ptr, ptr, ptr, ...) @cvProcessError(ptr noundef nonnull %0, i32 noundef -22, i32 noundef 2462, ptr noundef nonnull @__func__.CVodeQuadSensSStolerances, ptr noundef nonnull @.str, ptr noundef nonnull @.str.31)
  br label %.loopexit

25:                                               ; preds = %.lr.ph
  %indvars.iv.next = add nuw nsw i64 %indvars.iv, 1
  %exitcond.not = icmp eq i64 %indvars.iv.next, %wide.trip.count
  br i1 %exitcond.not, label %._crit_edge, label %.lr.ph

.lr.ph:                                           ; preds = %.lr.ph.preheader, %25
  %indvars.iv = phi i64 [ 0, %.lr.ph.preheader ], [ %indvars.iv.next, %25 ]
  %26 = getelementptr inbounds nuw double, ptr %2, i64 %indvars.iv
  %27 = load double, ptr %26, align 8, !tbaa !69
  %28 = fcmp olt double %27, 0.000000e+00
  br i1 %28, label %29, label %25

29:                                               ; preds = %.lr.ph
  tail call void (ptr, i32, i32, ptr, ptr, ptr, ...) @cvProcessError(ptr noundef nonnull %0, i32 noundef -22, i32 noundef 2471, ptr noundef nonnull @__func__.CVodeQuadSensSStolerances, ptr noundef nonnull @.str, ptr noundef nonnull @.str.32)
  br label %.loopexit

._crit_edge:                                      ; preds = %25, %.preheader
  %30 = getelementptr inbounds nuw i8, ptr %0, i64 296
  store i32 1, ptr %30, align 8, !tbaa !201
  %31 = getelementptr inbounds nuw i8, ptr %0, i64 304
  store double %1, ptr %31, align 8, !tbaa !202
  %32 = getelementptr inbounds nuw i8, ptr %0, i64 2152
  %33 = load i32, ptr %32, align 8, !tbaa !203
  %.not = icmp eq i32 %33, 0
  br i1 %.not, label %34, label %45

34:                                               ; preds = %._crit_edge
  %35 = getelementptr inbounds nuw i8, ptr %0, i64 312
  %36 = sext i32 %22 to i64
  %37 = shl nsw i64 %36, 3
  %38 = tail call noalias ptr @malloc(i64 noundef %37) #14
  store ptr %38, ptr %35, align 8, !tbaa !204
  %39 = shl nsw i64 %36, 2
  %40 = tail call noalias ptr @malloc(i64 noundef %39) #14
  %41 = getelementptr inbounds nuw i8, ptr %0, i64 328
  store ptr %40, ptr %41, align 8, !tbaa !205
  %42 = getelementptr inbounds nuw i8, ptr %0, i64 1816
  %43 = load i64, ptr %42, align 8, !tbaa !52
  %44 = add nsw i64 %43, %36
  store i64 %44, ptr %42, align 8, !tbaa !52
  store i32 1, ptr %32, align 8, !tbaa !203
  br label %45

45:                                               ; preds = %34, %._crit_edge
  br i1 %23, label %.lr.ph49, label %.loopexit

.lr.ph49:                                         ; preds = %45
  %46 = getelementptr inbounds nuw i8, ptr %0, i64 312
  %47 = load ptr, ptr %46, align 8, !tbaa !204
  %48 = getelementptr inbounds nuw i8, ptr %0, i64 328
  %49 = load ptr, ptr %48, align 8, !tbaa !205
  br label %50

50:                                               ; preds = %.lr.ph49, %50
  %indvars.iv51 = phi i64 [ 0, %.lr.ph49 ], [ %indvars.iv.next52, %50 ]
  %51 = getelementptr inbounds nuw double, ptr %2, i64 %indvars.iv51
  %52 = load double, ptr %51, align 8, !tbaa !69
  %53 = getelementptr inbounds nuw double, ptr %47, i64 %indvars.iv51
  store double %52, ptr %53, align 8, !tbaa !69
  %54 = fcmp oeq double %52, 0.000000e+00
  %55 = zext i1 %54 to i32
  %56 = getelementptr inbounds nuw i32, ptr %49, i64 %indvars.iv51
  store i32 %55, ptr %56, align 4, !tbaa !67
  %indvars.iv.next52 = add nuw nsw i64 %indvars.iv51, 1
  %57 = load i32, ptr %21, align 8, !tbaa !156
  %58 = sext i32 %57 to i64
  %59 = icmp slt i64 %indvars.iv.next52, %58
  br i1 %59, label %50, label %.loopexit

.loopexit:                                        ; preds = %50, %45, %29, %24, %18, %15, %10, %5
  %.039 = phi i32 [ -21, %5 ], [ -40, %10 ], [ -30, %15 ], [ -22, %18 ], [ -22, %24 ], [ -22, %29 ], [ 0, %45 ], [ 0, %50 ]
  ret i32 %.039
}